; Function Attrs: nounwind uwtable
define internal fastcc void @add_group(ptr noundef readonly captures(none) %0, ptr noundef readonly captures(none) %1, i64 noundef %2) unnamed_addr #0 {
  %4 = load i64, ptr getelementptr inbounds nuw (i8, ptr @pmix_group_t_class, i64 56), align 8, !tbaa !68
  %5 = tail call noalias noundef ptr @malloc(i64 noundef %4) #17
  %6 = load i32, ptr @pmix_class_init_epoch, align 4, !tbaa !3
  %7 = load i32, ptr getelementptr inbounds nuw (i8, ptr @pmix_group_t_class, i64 32), align 8, !tbaa !7
  %.not.i = icmp eq i32 %6, %7
  br i1 %.not.i, label %9, label %8

8:                                                ; preds = %3
  tail call void @pmix_class_initialize(ptr noundef nonnull @pmix_group_t_class) #16
  br label %9

9:                                                ; preds = %8, %3
  %.not22.i = icmp eq ptr %5, null
  br i1 %.not22.i, label %pmix_obj_new_tma.exit, label %10

10:                                               ; preds = %9
  %11 = tail call i32 @pthread_mutex_init(ptr noundef nonnull %5, ptr noundef null) #16
  %12 = getelementptr inbounds nuw i8, ptr %5, i64 40
  store ptr @pmix_group_t_class, ptr %12, align 8, !tbaa !13
  %13 = getelementptr inbounds nuw i8, ptr %5, i64 48
  store i32 1, ptr %13, align 8, !tbaa !16
  %14 = getelementptr inbounds nuw i8, ptr %5, i64 56
  %15 = getelementptr inbounds nuw i8, ptr %5, i64 96
  tail call void @llvm.memset.p0.i64(ptr noundef nonnull align 8 dereferenceable(32) %14, i8 0, i64 32, i1 false)
  tail call void @llvm.memset.p0.i64(ptr noundef nonnull align 8 dereferenceable(24) %15, i8 0, i64 24, i1 false)
  %16 = load ptr, ptr getelementptr inbounds nuw (i8, ptr @pmix_group_t_class, i64 40), align 8, !tbaa !17
  %17 = load ptr, ptr %16, align 8, !tbaa !18
  %.not6.i.i = icmp eq ptr %17, null
  br i1 %.not6.i.i, label %pmix_obj_new_tma.exit, label %.lr.ph.i.i

.lr.ph.i.i:                                       ; preds = %10, %.lr.ph.i.i
  %18 = phi ptr [ %20, %.lr.ph.i.i ], [ %17, %10 ]
  %.07.i.i = phi ptr [ %19, %.lr.ph.i.i ], [ %16, %10 ]
  tail call void %18(ptr noundef nonnull %5) #16
  %19 = getelementptr inbounds nuw i8, ptr %.07.i.i, i64 8
  %20 = load ptr, ptr %19, align 8, !tbaa !18
  %.not.i.i = icmp eq ptr %20, null
  br i1 %.not.i.i, label %pmix_obj_new_tma.exit, label %.lr.ph.i.i, !llvm.loop !19

pmix_obj_new_tma.exit:                            ; preds = %.lr.ph.i.i, %9, %10
  %21 = tail call ptr @PMIx_Proc_create(i64 noundef %2) #16
  %22 = getelementptr inbounds nuw i8, ptr %5, i64 152
  store ptr %21, ptr %22, align 8, !tbaa !162
  %23 = mul i64 %2, 260
  tail call void @llvm.memcpy.p0.p0.i64(ptr align 4 %21, ptr align 4 %1, i64 %23, i1 false)
  %24 = load ptr, ptr %22, align 8, !tbaa !162
  tail call void @qsort(ptr noundef %24, i64 noundef %2, i64 noundef 260, ptr noundef nonnull @pmix_util_compare_proc) #16
  %25 = getelementptr inbounds nuw i8, ptr %5, i64 160
  store i64 %2, ptr %25, align 8, !tbaa !163
  %26 = tail call noalias ptr @strdup(ptr noundef %0) #16
  %27 = getelementptr inbounds nuw i8, ptr %5, i64 144
  store ptr %26, ptr %27, align 8, !tbaa !159
  %28 = load ptr, ptr getelementptr inbounds nuw (i8, ptr @pmix_client_globals, i64 696), align 8, !tbaa !165
  %29 = getelementptr inbounds nuw i8, ptr %5, i64 128
  store ptr %28, ptr %29, align 8, !tbaa !165
  %30 = getelementptr inbounds nuw i8, ptr %28, i64 120
  store volatile ptr %5, ptr %30, align 8, !tbaa !158
  %31 = getelementptr inbounds nuw i8, ptr %5, i64 120
  store ptr getelementptr inbounds nuw (i8, ptr @pmix_client_globals, i64 568), ptr %31, align 8, !tbaa !158
  store ptr %5, ptr getelementptr inbounds nuw (i8, ptr @pmix_client_globals, i64 696), align 8, !tbaa !165
  %32 = load volatile i64, ptr getelementptr inbounds nuw (i8, ptr @pmix_client_globals, i64 712), align 8, !tbaa !166
  %33 = add i64 %32, 1
  store volatile i64 %33, ptr getelementptr inbounds nuw (i8, ptr @pmix_client_globals, i64 712), align 8, !tbaa !166
  ret void
}